target datalayout = "e-m:e-p270:32:32-p271:32:32-p272:64:64-i64:64-i128:128-f80:128-n8:16:32:64-S128"
target triple = "x86_64-pc-linux-gnu"

%struct.reftable_write_options = type { i8, i32, i8, i16, i32, i32, i8, i8, i64, ptr, ptr, ptr }
%struct.reftable_stack = type { %struct.stat, ptr, i32, ptr, %struct.reftable_write_options, ptr, i64, ptr, %struct.reftable_compaction_stats }
%struct.stat = type { i64, i64, i64, i32, i32, i32, i32, i64, i64, i64, i64, %struct.timespec, %struct.timespec, %struct.timespec, [3 x i64] }
%struct.timespec = type { i64, i64 }
%struct.reftable_compaction_stats = type { i64, i64, i32, i32 }
%struct.reftable_merged_table = type { ptr, i64, i32, i32, i64, i64 }

; Function Attrs: nounwind uwtable
define dso_local i64 @reftable_stack_next_update_index(ptr noundef %0) #0 {
  %2 = alloca i64, align 8
  %3 = alloca ptr, align 8
  %4 = alloca i32, align 4
  %5 = alloca i32, align 4
  store ptr %0, ptr %3, align 8, !tbaa !13
  call void @llvm.lifetime.start.p0(i64 4, ptr %4) #10
  %6 = load ptr, ptr %3, align 8, !tbaa !13
  %7 = getelementptr inbounds nuw %struct.reftable_stack, ptr %6, i32 0, i32 7
  %8 = load ptr, ptr %7, align 8, !tbaa !43
  %9 = getelementptr inbounds nuw %struct.reftable_merged_table, ptr %8, i32 0, i32 1
  %10 = load i64, ptr %9, align 8, !tbaa !68
  %11 = trunc i64 %10 to i32
  store i32 %11, ptr %4, align 4, !tbaa !15
  %12 = load i32, ptr %4, align 4, !tbaa !15
  %13 = icmp sgt i32 %12, 0
  br i1 %13, label %14, label %25

14:                                               ; preds = %1
  %15 = load ptr, ptr %3, align 8, !tbaa !13
  %16 = getelementptr inbounds nuw %struct.reftable_stack, ptr %15, i32 0, i32 5
  %17 = load ptr, ptr %16, align 8, !tbaa !44
  %18 = load i32, ptr %4, align 4, !tbaa !15
  %19 = sub nsw i32 %18, 1
  %20 = sext i32 %19 to i64
  %21 = getelementptr inbounds ptr, ptr %17, i64 %20
  %22 = load ptr, ptr %21, align 8, !tbaa !46
  %23 = call i64 @reftable_reader_max_update_index(ptr noundef %22)
  %24 = add i64 %23, 1
  store i64 %24, ptr %2, align 8
  store i32 1, ptr %5, align 4
  br label %26

25:                                               ; preds = %1
  store i64 1, ptr %2, align 8
  store i32 1, ptr %5, align 4
  br label %26

26:                                               ; preds = %25, %14
  call void @llvm.lifetime.end.p0(i64 4, ptr %4) #10
  %27 = load i64, ptr %2, align 8
  ret i64 %27
}