; Function Attrs: nounwind uwtable
define dso_local i64 @reftable_stack_next_update_index(ptr noundef readonly captures(none) %0) local_unnamed_addr #0 {
  %2 = getelementptr inbounds nuw i8, ptr %0, i64 240
  %3 = load ptr, ptr %2, align 8, !tbaa !34
  %4 = getelementptr inbounds nuw i8, ptr %3, i64 8
  %5 = load i64, ptr %4, align 8, !tbaa !36
  %6 = trunc i64 %5 to i32
  %7 = icmp sgt i32 %6, 0
  br i1 %7, label %8, label %17

8:                                                ; preds = %1
  %9 = getelementptr inbounds nuw i8, ptr %0, i64 224
  %10 = load ptr, ptr %9, align 8, !tbaa !38
  %11 = add i64 %5, 4294967295
  %12 = and i64 %11, 4294967295
  %13 = getelementptr inbounds nuw ptr, ptr %10, i64 %12
  %14 = load ptr, ptr %13, align 8, !tbaa !39
  %15 = tail call i64 @reftable_reader_max_update_index(ptr noundef %14) #16
  %16 = add i64 %15, 1
  br label %17

17:                                               ; preds = %1, %8
  %.0 = phi i64 [ %16, %8 ], [ 1, %1 ]
  ret i64 %.0
}